target datalayout = "e-m:e-p270:32:32-p271:32:32-p272:64:64-i64:64-i128:128-f80:128-n8:16:32:64-S128"
target triple = "x86_64-pc-linux-gnu"

%"class.sat::literal" = type { i32 }
%"class.pb::card" = type { %"class.pb::constraint", [0 x %"class.sat::literal"] }
%"class.pb::constraint" = type { ptr, i32, i8, %"class.sat::literal", %"class.sat::literal", i32, i32, i32, i64, i8, i32, i8, i32 }
%"struct.sat::config" = type <{ i64, i32, i32, i32, i8, [3 x i8], i32, i32, double, i32, i8, [3 x i8], i32, i8, [3 x i8], i32, [4 x i8], double, double, i32, i32, double, double, i32, [4 x i8], %class.symbol, double, i32, i32, i8, [3 x i8], i32, i32, i8, [3 x i8], i32, i8, [3 x i8], i32, i8, [3 x i8], i32, i8, i8, [2 x i8], i32, i8, i8, i8, i8, i8, i8, i8, i8, i32, i8, i8, i8, i8, i32, double, i32, [4 x i8], double, double, double, double, i32, i8, i8, [2 x i8], double, i8, i8, [2 x i8], i32, double, i32, i32, i32, i32, i32, i32, i32, i32, i8, i8, i8, i8, i32, i32, i8, i8, i8, i8, i8, i8, i8, [5 x i8], %class.symbol, i8, i8, i8, i8, i8, i8, [2 x i8], i32, i32, i32, i8, [3 x i8], double, double, double, double, double, i8, [7 x i8] }>
%class.symbol = type { ptr }

; Function Attrs: mustprogress nounwind uwtable
define linkonce_odr hidden noundef ptr @_ZNK2pb4card3endEv(ptr noundef nonnull align 8 dereferenceable(64) %0) #6 comdat align 2 {
  %2 = alloca ptr, align 8
  store ptr %0, ptr %2, align 8, !tbaa !3
  %3 = load ptr, ptr %2, align 8
  %4 = getelementptr inbounds nuw %"class.pb::card", ptr %3, i32 0, i32 1
  %5 = getelementptr inbounds [0 x %"class.sat::literal"], ptr %4, i64 0, i64 0
  %6 = getelementptr inbounds nuw %"class.pb::constraint", ptr %3, i32 0, i32 7
  %7 = load i32, ptr %6, align 8, !tbaa !35
  %8 = zext i32 %7 to i64
  %9 = getelementptr inbounds nuw %"class.sat::literal", ptr %5, i64 %8
  ret ptr %9
}

; Function Attrs: mustprogress nounwind uwtable
define linkonce_odr hidden noundef ptr @_ZNK2pb4card5beginEv(ptr noundef nonnull align 8 dereferenceable(64) %0) #6 comdat align 2 {
  %2 = alloca ptr, align 8
  store ptr %0, ptr %2, align 8, !tbaa !3
  %3 = load ptr, ptr %2, align 8
  %4 = getelementptr inbounds nuw %"class.pb::card", ptr %3, i32 0, i32 1
  %5 = getelementptr inbounds [0 x %"class.sat::literal"], ptr %4, i64 0, i64 0
  ret ptr %5
}

; Function Attrs: mustprogress nounwind uwtable
define linkonce_odr hidden noundef i32 @_ZNK2pb10constraint1kEv(ptr noundef nonnull align 8 dereferenceable(64) %0) #6 comdat align 2 {
  %2 = alloca ptr, align 8
  store ptr %0, ptr %2, align 8, !tbaa !22
  %3 = load ptr, ptr %2, align 8
  %4 = getelementptr inbounds nuw %"class.pb::constraint", ptr %3, i32 0, i32 12
  %5 = load i32, ptr %4, align 4, !tbaa !40
  ret i32 %5
}

; Function Attrs: mustprogress uwtable
define hidden noundef double @_ZNK2pb4card10get_rewardERKNS_16solver_interfaceERN3sat16literal_occs_funE(ptr noundef nonnull align 8 dereferenceable(64) %0, ptr noundef nonnull align 8 dereferenceable(8) %1, ptr noundef nonnull align 8 dereferenceable(8) %2) unnamed_addr #4 align 2 {
  %4 = alloca double, align 8
  %5 = alloca ptr, align 8
  %6 = alloca ptr, align 8
  %7 = alloca ptr, align 8
  %8 = alloca i32, align 4
  %9 = alloca i32, align 4
  %10 = alloca i8, align 1
  %11 = alloca double, align 8
  %12 = alloca ptr, align 8
  %13 = alloca ptr, align 8
  %14 = alloca ptr, align 8
  %15 = alloca i32, align 4
  %16 = alloca %"class.sat::literal", align 4
  %17 = alloca %"class.sat::literal", align 4
  %18 = alloca %"class.sat::literal", align 4
  store ptr %0, ptr %5, align 8, !tbaa !3
  store ptr %1, ptr %6, align 8, !tbaa !47
  store ptr %2, ptr %7, align 8, !tbaa !49
  %19 = load ptr, ptr %5, align 8
  call void @llvm.lifetime.start.p0(i64 4, ptr %8) #3
  %20 = call noundef i32 @_ZNK2pb10constraint1kEv(ptr noundef nonnull align 8 dereferenceable(64) %19)
  store i32 %20, ptr %8, align 4, !tbaa !8
  call void @llvm.lifetime.start.p0(i64 4, ptr %9) #3
  store i32 0, ptr %9, align 4, !tbaa !8
  call void @llvm.lifetime.start.p0(i64 1, ptr %10) #3
  %21 = load ptr, ptr %6, align 8, !tbaa !47
  %22 = load ptr, ptr %21, align 8, !tbaa !13
  %23 = getelementptr inbounds ptr, ptr %22, i64 12
  %24 = load ptr, ptr %23, align 8
  %25 = call noundef nonnull align 8 dereferenceable(409) ptr %24(ptr noundef nonnull align 8 dereferenceable(8) %21)
  %26 = getelementptr inbounds nuw %"struct.sat::config", ptr %25, i32 0, i32 67
  %27 = load i32, ptr %26, align 8, !tbaa !51
  %28 = icmp eq i32 %27, 2
  %29 = zext i1 %28 to i8
  store i8 %29, ptr %10, align 1, !tbaa !66
  call void @llvm.lifetime.start.p0(i64 8, ptr %11) #3
  %30 = load i8, ptr %10, align 1, !tbaa !66, !range !67, !noundef !68
  %31 = trunc i8 %30 to i1
  %32 = select i1 %31, i32 0, i32 1
  %33 = sitofp i32 %32 to double
  store double %33, ptr %11, align 8, !tbaa !69
  call void @llvm.lifetime.start.p0(i64 8, ptr %12) #3
  store ptr %19, ptr %12, align 8, !tbaa !3
  call void @llvm.lifetime.start.p0(i64 8, ptr %13) #3
  %34 = load ptr, ptr %12, align 8, !tbaa !3
  %35 = call noundef ptr @_ZNK2pb4card5beginEv(ptr noundef nonnull align 8 dereferenceable(64) %34)
  store ptr %35, ptr %13, align 8, !tbaa !42
  call void @llvm.lifetime.start.p0(i64 8, ptr %14) #3
  %36 = load ptr, ptr %12, align 8, !tbaa !3
  %37 = call noundef ptr @_ZNK2pb4card3endEv(ptr noundef nonnull align 8 dereferenceable(64) %36)
  store ptr %37, ptr %14, align 8, !tbaa !42
  br label %38

38:                                               ; preds = %79, %3
  %39 = load ptr, ptr %13, align 8, !tbaa !42
  %40 = load ptr, ptr %14, align 8, !tbaa !42
  %41 = icmp ne ptr %39, %40
  br i1 %41, label %43, label %42

42:                                               ; preds = %38
  store i32 2, ptr %15, align 4
  br label %82

43:                                               ; preds = %38
  call void @llvm.lifetime.start.p0(i64 4, ptr %16) #3
  %44 = load ptr, ptr %13, align 8, !tbaa !42
  call void @llvm.memcpy.p0.p0.i64(ptr align 4 %16, ptr align 4 %44, i64 4, i1 false), !tbaa.struct !12
  %45 = load ptr, ptr %6, align 8, !tbaa !47
  call void @llvm.memcpy.p0.p0.i64(ptr align 4 %17, ptr align 4 %16, i64 4, i1 false), !tbaa.struct !12
  %46 = getelementptr inbounds nuw %"class.sat::literal", ptr %17, i32 0, i32 0
  %47 = load i32, ptr %46, align 4
  %48 = load ptr, ptr %45, align 8, !tbaa !13
  %49 = getelementptr inbounds ptr, ptr %48, i64 3
  %50 = load ptr, ptr %49, align 8
  %51 = call noundef i32 %50(ptr noundef nonnull align 8 dereferenceable(8) %45, i32 %47)
  switch i32 %51, label %75 [
    i32 1, label %52
    i32 0, label %59
    i32 -1, label %75
  ]

52:                                               ; preds = %43
  %53 = load i32, ptr %8, align 4, !tbaa !8
  %54 = add i32 %53, -1
  store i32 %54, ptr %8, align 4, !tbaa !8
  %55 = load i32, ptr %8, align 4, !tbaa !8
  %56 = icmp eq i32 %55, 0
  br i1 %56, label %57, label %58

57:                                               ; preds = %52
  store double 0.000000e+00, ptr %4, align 8
  store i32 1, ptr %15, align 4
  br label %76

58:                                               ; preds = %52
  br label %59

59:                                               ; preds = %43, %58
  %60 = load i8, ptr %10, align 1, !tbaa !66, !range !67, !noundef !68
  %61 = trunc i8 %60 to i1
  br i1 %61, label %62, label %72

62:                                               ; preds = %59
  %63 = load ptr, ptr %7, align 8, !tbaa !49
  call void @llvm.memcpy.p0.p0.i64(ptr align 4 %18, ptr align 4 %16, i64 4, i1 false), !tbaa.struct !12
  %64 = getelementptr inbounds nuw %"class.sat::literal", ptr %18, i32 0, i32 0
  %65 = load i32, ptr %64, align 4
  %66 = load ptr, ptr %63, align 8, !tbaa !13
  %67 = getelementptr inbounds ptr, ptr %66, i64 0
  %68 = load ptr, ptr %67, align 8
  %69 = call noundef double %68(ptr noundef nonnull align 8 dereferenceable(8) %63, i32 %65)
  %70 = load double, ptr %11, align 8, !tbaa !69
  %71 = fadd double %70, %69
  store double %71, ptr %11, align 8, !tbaa !69
  br label %72

72:                                               ; preds = %62, %59
  %73 = load i32, ptr %9, align 4, !tbaa !8
  %74 = add i32 %73, 1
  store i32 %74, ptr %9, align 4, !tbaa !8
  br label %75

75:                                               ; preds = %43, %43, %72
  store i32 0, ptr %15, align 4
  br label %76

76:                                               ; preds = %75, %57
  call void @llvm.lifetime.end.p0(i64 4, ptr %16) #3
  %77 = load i32, ptr %15, align 4
  switch i32 %77, label %82 [
    i32 0, label %78
  ]

78:                                               ; preds = %76
  br label %79

79:                                               ; preds = %78
  %80 = load ptr, ptr %13, align 8, !tbaa !42
  %81 = getelementptr inbounds nuw %"class.sat::literal", ptr %80, i32 1
  store ptr %81, ptr %13, align 8, !tbaa !42
  br label %38

82:                                               ; preds = %76, %42
  call void @llvm.lifetime.end.p0(i64 8, ptr %14) #3
  call void @llvm.lifetime.end.p0(i64 8, ptr %13) #3
  call void @llvm.lifetime.end.p0(i64 8, ptr %12) #3
  %83 = load i32, ptr %15, align 4
  switch i32 %83, label %98 [
    i32 2, label %84
  ]

84:                                               ; preds = %82
  %85 = load i32, ptr %8, align 4, !tbaa !8
  %86 = load i32, ptr %9, align 4, !tbaa !8
  %87 = icmp uge i32 %85, %86
  br i1 %87, label %88, label %89

88:                                               ; preds = %84
  store double 1.000000e+00, ptr %4, align 8
  store i32 1, ptr %15, align 4
  br label %98

89:                                               ; preds = %84
  %90 = load i32, ptr %9, align 4, !tbaa !8
  %91 = load i32, ptr %8, align 4, !tbaa !8
  %92 = sub i32 %90, %91
  %93 = add i32 %92, 1
  %94 = uitofp i32 %93 to double
  %95 = call double @pow(double noundef 5.000000e-01, double noundef %94) #3, !tbaa !8
  %96 = load double, ptr %11, align 8, !tbaa !69
  %97 = fmul double %95, %96
  store double %97, ptr %4, align 8
  store i32 1, ptr %15, align 4
  br label %98

98:                                               ; preds = %89, %88, %82
  call void @llvm.lifetime.end.p0(i64 8, ptr %11) #3
  call void @llvm.lifetime.end.p0(i64 1, ptr %10) #3
  call void @llvm.lifetime.end.p0(i64 4, ptr %9) #3
  call void @llvm.lifetime.end.p0(i64 4, ptr %8) #3
  %99 = load double, ptr %4, align 8
  ret double %99
}