; Function Attrs: mustprogress uwtable
define hidden noundef double @_ZNK2pb4card10get_rewardERKNS_16solver_interfaceERN3sat16literal_occs_funE(ptr noundef nonnull readonly align 8 captures(address) dereferenceable(64) %0, ptr noundef nonnull align 8 dereferenceable(8) %1, ptr noundef nonnull align 8 dereferenceable(8) %2) unnamed_addr #8 align 2 {
  %4 = getelementptr inbounds nuw i8, ptr %0, i64 60
  %5 = load i32, ptr %4, align 4, !tbaa !25
  %6 = load ptr, ptr %1, align 8, !tbaa !26
  %7 = getelementptr inbounds nuw i8, ptr %6, i64 96
  %8 = load ptr, ptr %7, align 8
  %9 = tail call noundef nonnull align 8 dereferenceable(409) ptr %8(ptr noundef nonnull align 8 dereferenceable(8) %1)
  %10 = getelementptr inbounds nuw i8, ptr %9, i64 248
  %11 = load i32, ptr %10, align 8, !tbaa !33
  %.fr73 = freeze i32 %11
  %12 = icmp ne i32 %.fr73, 2
  %13 = uitofp i1 %12 to double
  %14 = getelementptr inbounds nuw i8, ptr %0, i64 32
  %15 = load i32, ptr %14, align 8, !tbaa !20
  %16 = zext i32 %15 to i64
  %.idx = shl nuw nsw i64 %16, 2
  %17 = getelementptr inbounds nuw i8, ptr %0, i64 %.idx
  %.ptr72 = getelementptr inbounds nuw i8, ptr %17, i64 64
  %.not63 = icmp eq i32 %15, 0
  br i1 %.not63, label %.loopexit, label %.lr.ph

.lr.ph:                                           ; preds = %3
  %.ptr = getelementptr inbounds nuw i8, ptr %0, i64 64
  br i1 %12, label %.lr.ph.split.us, label %.lr.ph.split

.lr.ph.split.us:                                  ; preds = %.lr.ph, %27
  %.02767.us = phi i32 [ %.4.ph.us, %27 ], [ %5, %.lr.ph ]
  %.03166.us = phi i32 [ %.334.ph.us, %27 ], [ 0, %.lr.ph ]
  %.04264.us = phi ptr [ %28, %27 ], [ %.ptr, %.lr.ph ]
  %.sroa.03.0.copyload.us = load i32, ptr %.04264.us, align 4, !tbaa !9
  %18 = load ptr, ptr %1, align 8, !tbaa !26
  %19 = getelementptr inbounds nuw i8, ptr %18, i64 24
  %20 = load ptr, ptr %19, align 8
  %21 = tail call noundef i32 %20(ptr noundef nonnull align 8 dereferenceable(8) %1, i32 %.sroa.03.0.copyload.us)
  switch i32 %21, label %27 [
    i32 1, label %22
    i32 0, label %25
  ]

22:                                               ; preds = %.lr.ph.split.us
  %23 = add i32 %.02767.us, -1
  %24 = icmp eq i32 %23, 0
  br i1 %24, label %.loopexit, label %25

25:                                               ; preds = %22, %.lr.ph.split.us
  %.330.us = phi i32 [ %.02767.us, %.lr.ph.split.us ], [ %23, %22 ]
  %26 = add i32 %.03166.us, 1
  br label %27

27:                                               ; preds = %25, %.lr.ph.split.us
  %.334.ph.us = phi i32 [ %26, %25 ], [ %.03166.us, %.lr.ph.split.us ]
  %.4.ph.us = phi i32 [ %.330.us, %25 ], [ %.02767.us, %.lr.ph.split.us ]
  %28 = getelementptr inbounds nuw i8, ptr %.04264.us, i64 4
  %.not.us = icmp eq ptr %28, %.ptr72
  br i1 %.not.us, label %._crit_edge, label %.lr.ph.split.us

.lr.ph.split:                                     ; preds = %.lr.ph, %42
  %.02767 = phi i32 [ %.4.ph, %42 ], [ %5, %.lr.ph ]
  %.03166 = phi i32 [ %.334.ph, %42 ], [ 0, %.lr.ph ]
  %.03765 = phi double [ %.340.ph, %42 ], [ %13, %.lr.ph ]
  %.04264 = phi ptr [ %43, %42 ], [ %.ptr, %.lr.ph ]
  %.sroa.03.0.copyload = load i32, ptr %.04264, align 4, !tbaa !9
  %29 = load ptr, ptr %1, align 8, !tbaa !26
  %30 = getelementptr inbounds nuw i8, ptr %29, i64 24
  %31 = load ptr, ptr %30, align 8
  %32 = tail call noundef i32 %31(ptr noundef nonnull align 8 dereferenceable(8) %1, i32 %.sroa.03.0.copyload)
  switch i32 %32, label %42 [
    i32 1, label %33
    i32 0, label %36
  ]

33:                                               ; preds = %.lr.ph.split
  %34 = add i32 %.02767, -1
  %35 = icmp eq i32 %34, 0
  br i1 %35, label %.loopexit, label %36

36:                                               ; preds = %33, %.lr.ph.split
  %.330 = phi i32 [ %.02767, %.lr.ph.split ], [ %34, %33 ]
  %37 = load ptr, ptr %2, align 8, !tbaa !26
  %38 = load ptr, ptr %37, align 8
  %39 = tail call noundef double %38(ptr noundef nonnull align 8 dereferenceable(8) %2, i32 %.sroa.03.0.copyload)
  %40 = fadd double %.03765, %39
  %41 = add i32 %.03166, 1
  br label %42

42:                                               ; preds = %36, %.lr.ph.split
  %.340.ph = phi double [ %40, %36 ], [ %.03765, %.lr.ph.split ]
  %.334.ph = phi i32 [ %41, %36 ], [ %.03166, %.lr.ph.split ]
  %.4.ph = phi i32 [ %.330, %36 ], [ %.02767, %.lr.ph.split ]
  %43 = getelementptr inbounds nuw i8, ptr %.04264, i64 4
  %.not = icmp eq ptr %43, %.ptr72
  br i1 %.not, label %._crit_edge, label %.lr.ph.split

._crit_edge:                                      ; preds = %42, %27
  %.037.lcssa = phi double [ %13, %27 ], [ %.340.ph, %42 ]
  %.031.lcssa = phi i32 [ %.334.ph.us, %27 ], [ %.334.ph, %42 ]
  %.027.lcssa = phi i32 [ %.4.ph.us, %27 ], [ %.4.ph, %42 ]
  %.not45 = icmp ult i32 %.027.lcssa, %.031.lcssa
  br i1 %.not45, label %44, label %.loopexit

44:                                               ; preds = %._crit_edge
  %45 = add i32 %.031.lcssa, 1
  %46 = sub i32 %45, %.027.lcssa
  %47 = uitofp i32 %46 to double
  %mul = fneg double %47
  %exp2 = tail call double @exp2(double %mul)
  %48 = fmul double %.037.lcssa, %exp2
  br label %.loopexit

.loopexit:                                        ; preds = %33, %22, %3, %._crit_edge, %44
  %.3 = phi double [ %48, %44 ], [ 1.000000e+00, %._crit_edge ], [ 1.000000e+00, %3 ], [ 0.000000e+00, %22 ], [ 0.000000e+00, %33 ]
  ret double %.3
}